; Function Attrs: mustprogress uwtable
define noundef i64 @_ZN32pxrInternal_v0_24__pxrReserved__29Tf_GetEmptyHashSetBucketCountEv() local_unnamed_addr #0 personality ptr @__gxx_personality_v0 {
  %1 = alloca %"struct.std::hash", align 1
  %2 = alloca %"struct.std::equal_to", align 1
  %3 = alloca %"class.std::allocator.18", align 1
  %4 = load atomic i8, ptr @_ZGVZN32pxrInternal_v0_24__pxrReserved__29Tf_GetEmptyHashSetBucketCountEvE5empty acquire, align 8
  %5 = icmp eq i8 %4, 0
  br i1 %5, label %6, label %11, !prof !4

6:                                                ; preds = %0
  %7 = tail call i32 @__cxa_guard_acquire(ptr nonnull @_ZGVZN32pxrInternal_v0_24__pxrReserved__29Tf_GetEmptyHashSetBucketCountEvE5empty) #8
  %.not = icmp eq i32 %7, 0
  br i1 %.not, label %11, label %8

8:                                                ; preds = %6
  invoke void @_ZN32pxrInternal_v0_24__pxrReserved__9TfHashSetIiSt4hashIiESt8equal_toIiESaIiEEC2EmRKS2_RKS4_RKS5_(ptr noundef nonnull align 8 dereferenceable(56) @_ZZN32pxrInternal_v0_24__pxrReserved__29Tf_GetEmptyHashSetBucketCountEvE5empty, i64 noundef 0, ptr noundef nonnull align 1 dereferenceable(1) %1, ptr noundef nonnull align 1 dereferenceable(1) %2, ptr noundef nonnull align 1 dereferenceable(1) %3)
          to label %9 unwind label %13

9:                                                ; preds = %8
  %10 = call i32 @__cxa_atexit(ptr nonnull @_ZN32pxrInternal_v0_24__pxrReserved__9TfHashSetIiSt4hashIiESt8equal_toIiESaIiEED2Ev, ptr nonnull @_ZZN32pxrInternal_v0_24__pxrReserved__29Tf_GetEmptyHashSetBucketCountEvE5empty, ptr nonnull @__dso_handle) #8
  call void @__cxa_guard_release(ptr nonnull @_ZGVZN32pxrInternal_v0_24__pxrReserved__29Tf_GetEmptyHashSetBucketCountEvE5empty) #8
  br label %11

11:                                               ; preds = %9, %6, %0
  %12 = load i64, ptr getelementptr inbounds nuw (i8, ptr @_ZZN32pxrInternal_v0_24__pxrReserved__29Tf_GetEmptyHashSetBucketCountEvE5empty, i64 8), align 8
  ret i64 %12

13:                                               ; preds = %8
  %14 = landingpad { ptr, i32 }
          cleanup
  call void @__cxa_guard_abort(ptr nonnull @_ZGVZN32pxrInternal_v0_24__pxrReserved__29Tf_GetEmptyHashSetBucketCountEvE5empty) #8
  resume { ptr, i32 } %14
}